; Function Attrs: mustprogress uwtable
define hidden void @_ZN4cvc58internal10IntBlaster7modpow2ENS0_12NodeTemplateILb1EEEj(ptr noalias sret(%"class.cvc5::internal::NodeTemplate") align 8 %agg.result, ptr nocapture noundef nonnull readonly align 8 dereferenceable(468) %this, ptr nocapture noundef readonly %n, i32 noundef %exponent) local_unnamed_addr #3 align 2 personality ptr @__gxx_personality_v0 {
entry:
  %nb.i = alloca %"class.cvc5::internal::NodeBuilder", align 8
  %agg.tmp.i = alloca %"class.cvc5::internal::NodeTemplate.99", align 8
  %agg.tmp4.i = alloca %"class.cvc5::internal::NodeTemplate.99", align 8
  %p2 = alloca %"class.cvc5::internal::NodeTemplate", align 8
  %ref.tmp = alloca %"class.cvc5::internal::Rational", align 8
  %d_nm = getelementptr inbounds i8, ptr %this, i64 240
  %0 = load ptr, ptr %d_nm, align 8
  call fastcc void @_ZN4cvc58internal12_GLOBAL__N_17intpow2Ej(ptr noalias nonnull align 8 %ref.tmp, i32 noundef %exponent)
  invoke void @_ZN4cvc58internal11NodeManager10mkConstIntERKNS0_8RationalE(ptr nonnull sret(%"class.cvc5::internal::NodeTemplate") align 8 %p2, ptr noundef nonnull align 8 dereferenceable(3360) %0, ptr noundef nonnull align 8 dereferenceable(32) %ref.tmp)
          to label %invoke.cont unwind label %lpad

invoke.cont:                                      ; preds = %entry
  invoke void @__gmpq_clear(ptr noundef nonnull %ref.tmp)
          to label %_ZN4cvc58internal8RationalD2Ev.exit unwind label %terminate.lpad.i.i

terminate.lpad.i.i:                               ; preds = %invoke.cont
  %1 = landingpad { ptr, i32 }
          catch ptr null
  %2 = extractvalue { ptr, i32 } %1, 0
  call void @__clang_call_terminate(ptr %2) #22
  unreachable

_ZN4cvc58internal8RationalD2Ev.exit:              ; preds = %invoke.cont
  %3 = load ptr, ptr %d_nm, align 8
  %4 = load ptr, ptr %n, align 8
  %5 = load ptr, ptr %p2, align 8
  call void @llvm.lifetime.start.p0(i64 120, ptr nonnull %nb.i)
  call void @llvm.lifetime.start.p0(i64 8, ptr nonnull %agg.tmp.i)
  call void @llvm.lifetime.start.p0(i64 8, ptr nonnull %agg.tmp4.i)
  invoke void @_ZN4cvc58internal11NodeBuilderC1EPNS0_11NodeManagerENS0_4kind6Kind_tE(ptr noundef nonnull align 8 dereferenceable(116) %nb.i, ptr noundef nonnull %3, i32 noundef 46)
          to label %.noexc unwind label %lpad8

.noexc:                                           ; preds = %_ZN4cvc58internal8RationalD2Ev.exit
  store ptr %4, ptr %agg.tmp.i, align 8, !noalias !24
  %call.i = invoke noundef nonnull align 8 dereferenceable(116) ptr @_ZN4cvc58internal11NodeBuilderlsENS0_12NodeTemplateILb0EEE(ptr noundef nonnull align 8 dereferenceable(116) %nb.i, ptr noundef nonnull %agg.tmp.i)
          to label %invoke.cont3.i unwind label %lpad2.i, !noalias !24

invoke.cont3.i:                                   ; preds = %.noexc
  store ptr %5, ptr %agg.tmp4.i, align 8, !noalias !24
  %call8.i = invoke noundef nonnull align 8 dereferenceable(116) ptr @_ZN4cvc58internal11NodeBuilderlsENS0_12NodeTemplateILb0EEE(ptr noundef nonnull align 8 dereferenceable(116) %call.i, ptr noundef nonnull %agg.tmp4.i)
          to label %invoke.cont7.i unwind label %lpad6.i, !noalias !24

invoke.cont7.i:                                   ; preds = %invoke.cont3.i
  invoke void @_ZN4cvc58internal11NodeBuilder13constructNodeEv(ptr sret(%"class.cvc5::internal::NodeTemplate") align 8 %agg.result, ptr noundef nonnull align 8 dereferenceable(116) %nb.i)
          to label %invoke.cont9 unwind label %lpad.i

lpad.i:                                           ; preds = %invoke.cont7.i
  %6 = landingpad { ptr, i32 }
          cleanup
  br label %ehcleanup10.i

lpad2.i:                                          ; preds = %.noexc
  %7 = landingpad { ptr, i32 }
          cleanup
  br label %ehcleanup10.i

lpad6.i:                                          ; preds = %invoke.cont3.i
  %8 = landingpad { ptr, i32 }
          cleanup
  br label %ehcleanup10.i

ehcleanup10.i:                                    ; preds = %lpad6.i, %lpad2.i, %lpad.i
  %.pn2.i = phi { ptr, i32 } [ %6, %lpad.i ], [ %8, %lpad6.i ], [ %7, %lpad2.i ]
  call void @_ZN4cvc58internal11NodeBuilderD1Ev(ptr noundef nonnull align 8 dereferenceable(116) %nb.i) #21
  br label %lpad8.body

invoke.cont9:                                     ; preds = %invoke.cont7.i
  call void @_ZN4cvc58internal11NodeBuilderD1Ev(ptr noundef nonnull align 8 dereferenceable(116) %nb.i) #21
  call void @llvm.lifetime.end.p0(i64 120, ptr nonnull %nb.i)
  call void @llvm.lifetime.end.p0(i64 8, ptr nonnull %agg.tmp.i)
  call void @llvm.lifetime.end.p0(i64 8, ptr nonnull %agg.tmp4.i)
  %9 = load ptr, ptr %p2, align 8
  %bf.load.i.i = load i64, ptr %9, align 8
  %10 = and i64 %bf.load.i.i, 1152920405095219200
  %cmp.not.i.i = icmp eq i64 %10, 1152920405095219200
  br i1 %cmp.not.i.i, label %_ZN4cvc58internal12NodeTemplateILb1EED2Ev.exit, label %if.then.i.i

if.then.i.i:                                      ; preds = %invoke.cont9
  %bf.value.i.i = add i64 %bf.load.i.i, 1152920405095219200
  %bf.shl.i.i = and i64 %bf.value.i.i, 1152920405095219200
  %bf.clear7.i.i = and i64 %bf.load.i.i, -1152920405095219201
  %bf.set.i.i = or disjoint i64 %bf.shl.i.i, %bf.clear7.i.i
  store i64 %bf.set.i.i, ptr %9, align 8
  %cmp12.i.i = icmp eq i64 %bf.shl.i.i, 0
  br i1 %cmp12.i.i, label %if.then13.i.i, label %_ZN4cvc58internal12NodeTemplateILb1EED2Ev.exit

if.then13.i.i:                                    ; preds = %if.then.i.i
  invoke void @_ZN4cvc58internal4expr9NodeValue15markForDeletionEv(ptr noundef nonnull align 8 dereferenceable(16) %9)
          to label %_ZN4cvc58internal12NodeTemplateILb1EED2Ev.exit unwind label %terminate.lpad.i

terminate.lpad.i:                                 ; preds = %if.then13.i.i
  %11 = landingpad { ptr, i32 }
          catch ptr null
  %12 = extractvalue { ptr, i32 } %11, 0
  call void @__clang_call_terminate(ptr %12) #22
  unreachable

_ZN4cvc58internal12NodeTemplateILb1EED2Ev.exit:   ; preds = %invoke.cont9, %if.then.i.i, %if.then13.i.i
  ret void

lpad:                                             ; preds = %entry
  %13 = landingpad { ptr, i32 }
          cleanup
  invoke void @__gmpq_clear(ptr noundef nonnull %ref.tmp)
          to label %eh.resume unwind label %terminate.lpad.i.i2

terminate.lpad.i.i2:                              ; preds = %lpad
  %14 = landingpad { ptr, i32 }
          catch ptr null
  %15 = extractvalue { ptr, i32 } %14, 0
  call void @__clang_call_terminate(ptr %15) #22
  unreachable

lpad8:                                            ; preds = %_ZN4cvc58internal8RationalD2Ev.exit
  %16 = landingpad { ptr, i32 }
          cleanup
  br label %lpad8.body

lpad8.body:                                       ; preds = %ehcleanup10.i, %lpad8
  %eh.lpad-body = phi { ptr, i32 } [ %16, %lpad8 ], [ %.pn2.i, %ehcleanup10.i ]
  call void @_ZN4cvc58internal12NodeTemplateILb1EED2Ev(ptr noundef nonnull align 8 dereferenceable(8) %p2) #21
  br label %eh.resume

eh.resume:                                        ; preds = %lpad, %lpad8.body
  %.pn = phi { ptr, i32 } [ %eh.lpad-body, %lpad8.body ], [ %13, %lpad ]
  resume { ptr, i32 } %.pn
}